; Function Attrs: mustprogress nofree norecurse nosync nounwind willreturn memory(argmem: readwrite) uwtable
define range(i32 0, 129) i32 @png_get_pHYs_dpi(ptr noalias noundef readnone %0, ptr noalias noundef readonly %1, ptr noundef %2, ptr noundef %3, ptr noundef writeonly %4) local_unnamed_addr #3 {
  %6 = icmp ne ptr %0, null
  %7 = icmp ne ptr %1, null
  %or.cond = and i1 %6, %7
  br i1 %or.cond, label %8, label %38

8:                                                ; preds = %5
  %9 = getelementptr inbounds i8, ptr %1, i64 8
  %10 = load i32, ptr %9, align 8
  %11 = and i32 %10, 128
  %.not = icmp eq i32 %11, 0
  br i1 %.not, label %38, label %12

12:                                               ; preds = %8
  %.not29 = icmp eq ptr %2, null
  br i1 %.not29, label %16, label %13

13:                                               ; preds = %12
  %14 = getelementptr inbounds i8, ptr %1, i64 224
  %15 = load i32, ptr %14, align 8
  store i32 %15, ptr %2, align 4
  br label %16

16:                                               ; preds = %13, %12
  %.0 = phi i32 [ 128, %13 ], [ 0, %12 ]
  %.not30 = icmp eq ptr %3, null
  br i1 %.not30, label %20, label %17

17:                                               ; preds = %16
  %18 = getelementptr inbounds i8, ptr %1, i64 228
  %19 = load i32, ptr %18, align 4
  store i32 %19, ptr %3, align 4
  br label %20

20:                                               ; preds = %17, %16
  %.1 = phi i32 [ 128, %17 ], [ %.0, %16 ]
  %.not31 = icmp eq ptr %4, null
  br i1 %.not31, label %38, label %21

21:                                               ; preds = %20
  %22 = getelementptr inbounds i8, ptr %1, i64 232
  %23 = load i8, ptr %22, align 8
  %24 = zext i8 %23 to i32
  store i32 %24, ptr %4, align 4
  %25 = icmp eq i8 %23, 1
  br i1 %25, label %26, label %38

26:                                               ; preds = %21
  br i1 %.not29, label %32, label %27

27:                                               ; preds = %26
  %28 = load i32, ptr %2, align 4
  %29 = uitofp i32 %28 to double
  %30 = tail call double @llvm.fmuladd.f64(double %29, double 2.540000e-02, double 5.000000e-01)
  %31 = fptoui double %30 to i32
  store i32 %31, ptr %2, align 4
  br label %32

32:                                               ; preds = %27, %26
  br i1 %.not30, label %38, label %33

33:                                               ; preds = %32
  %34 = load i32, ptr %3, align 4
  %35 = uitofp i32 %34 to double
  %36 = tail call double @llvm.fmuladd.f64(double %35, double 2.540000e-02, double 5.000000e-01)
  %37 = fptoui double %36 to i32
  store i32 %37, ptr %3, align 4
  br label %38

38:                                               ; preds = %20, %32, %33, %21, %8, %5
  %.2 = phi i32 [ 128, %33 ], [ 128, %32 ], [ 128, %21 ], [ %.1, %20 ], [ 0, %8 ], [ 0, %5 ]
  ret i32 %.2
}